target datalayout = "e-m:e-p270:32:32-p271:32:32-p272:64:64-i64:64-i128:128-f80:128-n8:16:32:64-S128"
target triple = "x86_64-pc-linux-gnu"

%struct.cli_events = type { ptr, %struct.cli_event, i64, i32, i32 }
%struct.cli_event = type { ptr, %union.ev_val, i32, i16 }
%union.ev_val = type { ptr }

; Function Attrs: nounwind uwtable
define void @cli_event_debug_all(ptr noundef %0) #0 {
  %2 = alloca ptr, align 8
  %3 = alloca i32, align 4
  store ptr %0, ptr %2, align 8, !tbaa !7
  call void @llvm.lifetime.start.p0(i64 4, ptr %3) #8
  store i32 0, ptr %3, align 4, !tbaa !3
  br label %4

4:                                                ; preds = %24, %1
  %5 = load i32, ptr %3, align 4, !tbaa !3
  %6 = load ptr, ptr %2, align 8, !tbaa !7
  %7 = getelementptr inbounds nuw %struct.cli_events, ptr %6, i32 0, i32 3
  %8 = load i32, ptr %7, align 8, !tbaa !10
  %9 = icmp ult i32 %5, %8
  br i1 %9, label %10, label %27

10:                                               ; preds = %4
  %11 = load ptr, ptr %2, align 8, !tbaa !7
  %12 = getelementptr inbounds nuw %struct.cli_events, ptr %11, i32 0, i32 0
  %13 = load ptr, ptr %12, align 8, !tbaa !16
  %14 = load i32, ptr %3, align 4, !tbaa !3
  %15 = zext i32 %14 to i64
  %16 = getelementptr inbounds nuw %struct.cli_event, ptr %13, i64 %15
  %17 = getelementptr inbounds nuw %struct.cli_event, ptr %16, i32 0, i32 2
  %18 = load i32, ptr %17, align 8, !tbaa !25
  %19 = icmp ne i32 %18, 0
  br i1 %19, label %20, label %23

20:                                               ; preds = %10
  %21 = load ptr, ptr %2, align 8, !tbaa !7
  %22 = load i32, ptr %3, align 4, !tbaa !3
  call void @cli_event_debug(ptr noundef %21, i32 noundef %22)
  br label %23

23:                                               ; preds = %20, %10
  br label %24

24:                                               ; preds = %23
  %25 = load i32, ptr %3, align 4, !tbaa !3
  %26 = add i32 %25, 1
  store i32 %26, ptr %3, align 4, !tbaa !3
  br label %4

27:                                               ; preds = %4
  call void @llvm.lifetime.end.p0(i64 4, ptr %3) #8
  ret void
}