; Function Attrs: nounwind uwtable
define void @cli_event_debug_all(ptr noundef %0) local_unnamed_addr #5 {
  %2 = getelementptr inbounds nuw i8, ptr %0, i64 40
  %3 = load i32, ptr %2, align 8, !tbaa !3
  %.not7 = icmp eq i32 %3, 0
  br i1 %.not7, label %._crit_edge, label %.lr.ph

.lr.ph:                                           ; preds = %1, %10
  %4 = phi i32 [ %11, %10 ], [ %3, %1 ]
  %indvars.iv = phi i64 [ %indvars.iv.next, %10 ], [ 0, %1 ]
  %5 = load ptr, ptr %0, align 8, !tbaa !13
  %6 = getelementptr inbounds nuw %struct.cli_event, ptr %5, i64 %indvars.iv, i32 2
  %7 = load i32, ptr %6, align 8, !tbaa !18
  %.not = icmp eq i32 %7, 0
  br i1 %.not, label %10, label %8

8:                                                ; preds = %.lr.ph
  %9 = trunc nuw i64 %indvars.iv to i32
  tail call void @cli_event_debug(ptr noundef nonnull %0, i32 noundef %9)
  %.pre = load i32, ptr %2, align 8, !tbaa !3
  br label %10

10:                                               ; preds = %.lr.ph, %8
  %11 = phi i32 [ %4, %.lr.ph ], [ %.pre, %8 ]
  %indvars.iv.next = add nuw nsw i64 %indvars.iv, 1
  %12 = zext i32 %11 to i64
  %13 = icmp samesign ult i64 %indvars.iv.next, %12
  br i1 %13, label %.lr.ph, label %._crit_edge

._crit_edge:                                      ; preds = %10, %1
  ret void
}